; Function Attrs: nounwind uwtable
define ptr @wc_ecc_key_new(ptr noundef %heap) local_unnamed_addr #2 {
entry:
  %call = tail call ptr @wolfSSL_Malloc(i64 noundef 4200) #19
  %tobool.not = icmp eq ptr %call, null
  br i1 %tobool.not, label %if.end6, label %if.end.i

if.end.i:                                         ; preds = %entry
  %k.i = getelementptr inbounds nuw i8, ptr %call, i64 3152
  %pubkey.i = getelementptr inbounds nuw i8, ptr %call, i64 32
  %y.i = getelementptr inbounds nuw i8, ptr %call, i64 1072
  %z.i = getelementptr inbounds nuw i8, ptr %call, i64 2112
  tail call void @llvm.memset.p0.i64(ptr noundef nonnull align 8 dereferenceable(4200) %call, i8 0, i64 4200, i1 false)
  %call.i = tail call i32 @sp_init_multi(ptr noundef nonnull %k.i, ptr noundef nonnull %pubkey.i, ptr noundef nonnull %y.i, ptr noundef nonnull %z.i, ptr noundef null, ptr noundef null) #19
  %cmp6.not.i = icmp eq i32 %call.i, 0
  br i1 %cmp6.not.i, label %wc_ecc_init_ex.exit.thread, label %if.then4

wc_ecc_init_ex.exit.thread:                       ; preds = %if.end.i
  %heap9.i = getelementptr inbounds nuw i8, ptr %call, i64 24
  store ptr %heap, ptr %heap9.i, align 8
  br label %if.end6

if.then4:                                         ; preds = %if.end.i
  tail call void @wolfSSL_Free(ptr noundef nonnull %call) #19
  br label %if.end6

if.end6:                                          ; preds = %wc_ecc_init_ex.exit.thread, %if.then4, %entry
  %key.0 = phi ptr [ null, %if.then4 ], [ null, %entry ], [ %call, %wc_ecc_init_ex.exit.thread ]
  ret ptr %key.0
}